; Function Attrs: mustprogress uwtable
define void @_ZN8Paintbox16resetPixmapDeltaEv(ptr nocapture noundef nonnull align 8 dereferenceable(844) %0) local_unnamed_addr #0 align 2 personality ptr @__gxx_personality_v0 {
  %2 = alloca %class.QPointF, align 8
  %3 = alloca %class.QPointF, align 16
  %4 = alloca %class.QPixmap, align 8
  %5 = alloca %class.QPixmap, align 8
  %6 = getelementptr inbounds i8, ptr %0, i64 824
  %7 = load ptr, ptr %6, align 8
  call void @_ZNK19QGraphicsPixmapItem6pixmapEv(ptr dead_on_unwind nonnull writable sret(%class.QPixmap) align 8 %4, ptr noundef nonnull align 8 dereferenceable(16) %7)
  %8 = invoke noundef i32 @_ZNK7QPixmap5widthEv(ptr noundef nonnull align 8 dereferenceable(32) %4)
          to label %9 unwind label %28

9:                                                ; preds = %1
  %10 = sitofp i32 %8 to double
  %11 = fmul double %10, 5.000000e-01
  %12 = load ptr, ptr %6, align 8
  invoke void @_ZNK19QGraphicsPixmapItem6pixmapEv(ptr dead_on_unwind nonnull writable sret(%class.QPixmap) align 8 %5, ptr noundef nonnull align 8 dereferenceable(16) %12)
          to label %13 unwind label %28

13:                                               ; preds = %9
  %14 = invoke noundef i32 @_ZNK7QPixmap6heightEv(ptr noundef nonnull align 8 dereferenceable(32) %5)
          to label %15 unwind label %30

15:                                               ; preds = %13
  %16 = sitofp i32 %14 to double
  %17 = fmul double %16, 5.000000e-01
  %18 = getelementptr inbounds i8, ptr %0, i64 836
  %19 = insertelement <2 x double> poison, double %11, i64 0
  %20 = insertelement <2 x double> %19, double %17, i64 1
  %21 = fptosi <2 x double> %20 to <2 x i32>
  store <2 x i32> %21, ptr %18, align 4
  %22 = load ptr, ptr %6, align 8
  call void @llvm.lifetime.start.p0(i64 16, ptr nonnull %3)
  %23 = sub nsw <2 x i32> zeroinitializer, %21
  %24 = sitofp <2 x i32> %23 to <2 x double>
  store <2 x double> %24, ptr %3, align 16
  invoke void @_ZN13QGraphicsItem6setPosERK7QPointF(ptr noundef nonnull align 8 dereferenceable(16) %22, ptr noundef nonnull align 8 dereferenceable(16) %3)
          to label %.noexc unwind label %30

.noexc:                                           ; preds = %15
  call void @llvm.lifetime.end.p0(i64 16, ptr nonnull %3)
  %25 = getelementptr inbounds i8, ptr %0, i64 280
  %26 = load ptr, ptr %25, align 8
  call void @llvm.lifetime.start.p0(i64 16, ptr nonnull %2)
  call void @llvm.memset.p0.i64(ptr noundef nonnull align 8 dereferenceable(16) %2, i8 0, i64 16, i1 false)
  invoke void @_ZN13QGraphicsView8centerOnERK7QPointF(ptr noundef nonnull align 8 dereferenceable(48) %26, ptr noundef nonnull align 8 dereferenceable(16) %2)
          to label %27 unwind label %30

27:                                               ; preds = %.noexc
  call void @llvm.lifetime.end.p0(i64 16, ptr nonnull %2)
  call void @_ZN7QPixmapD1Ev(ptr noundef nonnull align 8 dereferenceable(32) %5) #18
  call void @_ZN7QPixmapD1Ev(ptr noundef nonnull align 8 dereferenceable(32) %4) #18
  ret void

28:                                               ; preds = %9, %1
  %29 = landingpad { ptr, i32 }
          cleanup
  br label %32

30:                                               ; preds = %.noexc, %15, %13
  %31 = landingpad { ptr, i32 }
          cleanup
  call void @_ZN7QPixmapD1Ev(ptr noundef nonnull align 8 dereferenceable(32) %5) #18
  br label %32

32:                                               ; preds = %30, %28
  %.pn = phi { ptr, i32 } [ %31, %30 ], [ %29, %28 ]
  call void @_ZN7QPixmapD1Ev(ptr noundef nonnull align 8 dereferenceable(32) %4) #18
  resume { ptr, i32 } %.pn
}